target datalayout = "e-m:e-p270:32:32-p271:32:32-p272:64:64-i64:64-i128:128-f80:128-n8:16:32:64-S128"
target triple = "x86_64-pc-linux-gnu"

%"struct.llvm::MCSchedModel" = type { i32, i32, i32, i32, i32, i32, i8, i8, i8, i32, ptr, ptr, i32, i32, ptr, ptr }
%"class.llvm::MachineTraceMetrics" = type { %"class.llvm::MachineFunctionPass", ptr, ptr, ptr, ptr, ptr, %"class.llvm::TargetSchedModel", %"class.llvm::SmallVector.5", %"class.llvm::SmallVector.10", [2 x ptr] }
%"class.llvm::MachineFunctionPass" = type { %"class.llvm::FunctionPass.base", %"class.llvm::MachineFunctionProperties", %"class.llvm::MachineFunctionProperties", %"class.llvm::MachineFunctionProperties" }
%"class.llvm::FunctionPass.base" = type { %"class.llvm::Pass.base" }
%"class.llvm::Pass.base" = type <{ ptr, ptr, ptr, i32 }>
%"class.llvm::MachineFunctionProperties" = type { %"class.std::bitset" }
%"class.std::bitset" = type { %"struct.std::_Base_bitset" }
%"struct.std::_Base_bitset" = type { i64 }
%"class.llvm::TargetSchedModel" = type { %"struct.llvm::MCSchedModel", %"class.llvm::InstrItineraryData", ptr, ptr, %"class.llvm::SmallVector", i32, i32 }
%"class.llvm::InstrItineraryData" = type { %"struct.llvm::MCSchedModel", ptr, ptr, ptr, ptr }
%"class.llvm::SmallVector" = type { %"class.llvm::SmallVectorImpl", %"struct.llvm::SmallVectorStorage" }
%"class.llvm::SmallVectorImpl" = type { %"class.llvm::SmallVectorTemplateBase" }
%"class.llvm::SmallVectorTemplateBase" = type { %"class.llvm::SmallVectorTemplateCommon" }
%"class.llvm::SmallVectorTemplateCommon" = type { %"class.llvm::SmallVectorBase" }
%"class.llvm::SmallVectorBase" = type { ptr, i32, i32 }
%"struct.llvm::SmallVectorStorage" = type { [64 x i8] }
%"class.llvm::SmallVector.5" = type { %"class.llvm::SmallVectorImpl.6", %"struct.llvm::SmallVectorStorage.9" }
%"class.llvm::SmallVectorImpl.6" = type { %"class.llvm::SmallVectorTemplateBase.7" }
%"class.llvm::SmallVectorTemplateBase.7" = type { %"class.llvm::SmallVectorTemplateCommon.8" }
%"class.llvm::SmallVectorTemplateCommon.8" = type { %"class.llvm::SmallVectorBase" }
%"struct.llvm::SmallVectorStorage.9" = type { [32 x i8] }
%"class.llvm::SmallVector.10" = type { %"class.llvm::SmallVectorImpl" }
%"class.llvm::ilist_node_impl" = type { %"class.llvm::ilist_node_base" }
%"class.llvm::ilist_node_base" = type { %"class.llvm::ilist_detail::node_base_prevnext" }
%"class.llvm::ilist_detail::node_base_prevnext" = type { ptr, ptr }
%"struct.llvm::Align" = type { i8 }
%"struct.llvm::MachineTraceMetrics::FixedBlockInfo" = type <{ i32, i8, [3 x i8] }>
%"class.llvm::MachineBasicBlock" = type { %"class.llvm::ilist_node_with_parent", ptr, i32, i32, ptr, %"class.llvm::iplist.180", %"class.llvm::SmallVector.193", %"class.llvm::SmallVector.198", %"class.std::vector.200", %"class.std::optional", %"class.std::vector.205", %"struct.llvm::Align", i32, i8, i8, ptr, i8, i8, i8, i8, i8, [3 x i8], %"class.std::optional.210", %"struct.llvm::MBBSectionID", i8, i8, i8, ptr, ptr, ptr }
%"class.llvm::ilist_node_with_parent" = type { %"class.llvm::ilist_node" }
%"class.llvm::ilist_node" = type { %"class.llvm::ilist_node_impl" }
%"class.llvm::iplist.180" = type { %"class.llvm::iplist_impl.181" }
%"class.llvm::iplist_impl.181" = type { %"struct.llvm::ilist_traits.182", %"class.llvm::simple_ilist.183" }
%"struct.llvm::ilist_traits.182" = type { ptr }
%"class.llvm::simple_ilist.183" = type { %"class.llvm::ilist_sentinel.186" }
%"class.llvm::ilist_sentinel.186" = type { %"class.llvm::ilist_node_impl.187" }
%"class.llvm::ilist_node_impl.187" = type { %"class.llvm::ilist_node_base.188" }
%"class.llvm::ilist_node_base.188" = type { %"class.llvm::ilist_detail::node_base_prevnext.189" }
%"class.llvm::ilist_detail::node_base_prevnext.189" = type { %"class.llvm::PointerIntPair.190", ptr }
%"class.llvm::PointerIntPair.190" = type { %"struct.llvm::detail::PunnedPointer.191" }
%"struct.llvm::detail::PunnedPointer.191" = type { [8 x i8] }
%"class.llvm::SmallVector.193" = type { %"class.llvm::SmallVectorImpl.194", %"struct.llvm::SmallVectorStorage.197" }
%"class.llvm::SmallVectorImpl.194" = type { %"class.llvm::SmallVectorTemplateBase.195" }
%"class.llvm::SmallVectorTemplateBase.195" = type { %"class.llvm::SmallVectorTemplateCommon.196" }
%"class.llvm::SmallVectorTemplateCommon.196" = type { %"class.llvm::SmallVectorBase" }
%"struct.llvm::SmallVectorStorage.197" = type { [32 x i8] }
%"class.llvm::SmallVector.198" = type { %"class.llvm::SmallVectorImpl.194", %"struct.llvm::SmallVectorStorage.199" }
%"struct.llvm::SmallVectorStorage.199" = type { [16 x i8] }
%"class.std::vector.200" = type { %"struct.std::_Vector_base.201" }
%"struct.std::_Vector_base.201" = type { %"struct.std::_Vector_base<llvm::BranchProbability, std::allocator<llvm::BranchProbability>>::_Vector_impl" }
%"struct.std::_Vector_base<llvm::BranchProbability, std::allocator<llvm::BranchProbability>>::_Vector_impl" = type { %"struct.std::_Vector_base<llvm::BranchProbability, std::allocator<llvm::BranchProbability>>::_Vector_impl_data" }
%"struct.std::_Vector_base<llvm::BranchProbability, std::allocator<llvm::BranchProbability>>::_Vector_impl_data" = type { ptr, ptr, ptr }
%"class.std::optional" = type { %"struct.std::_Optional_base" }
%"struct.std::_Optional_base" = type { %"struct.std::_Optional_payload" }
%"struct.std::_Optional_payload" = type { %"struct.std::_Optional_payload_base.base", [7 x i8] }
%"struct.std::_Optional_payload_base.base" = type <{ %"union.std::_Optional_payload_base<unsigned long>::_Storage", i8 }>
%"union.std::_Optional_payload_base<unsigned long>::_Storage" = type { i64 }
%"class.std::vector.205" = type { %"struct.std::_Vector_base.206" }
%"struct.std::_Vector_base.206" = type { %"struct.std::_Vector_base<llvm::MachineBasicBlock::RegisterMaskPair, std::allocator<llvm::MachineBasicBlock::RegisterMaskPair>>::_Vector_impl" }
%"struct.std::_Vector_base<llvm::MachineBasicBlock::RegisterMaskPair, std::allocator<llvm::MachineBasicBlock::RegisterMaskPair>>::_Vector_impl" = type { %"struct.std::_Vector_base<llvm::MachineBasicBlock::RegisterMaskPair, std::allocator<llvm::MachineBasicBlock::RegisterMaskPair>>::_Vector_impl_data" }
%"struct.std::_Vector_base<llvm::MachineBasicBlock::RegisterMaskPair, std::allocator<llvm::MachineBasicBlock::RegisterMaskPair>>::_Vector_impl_data" = type { ptr, ptr, ptr }
%"class.std::optional.210" = type { %"struct.std::_Optional_base.211" }
%"struct.std::_Optional_base.211" = type { %"struct.std::_Optional_payload.213" }
%"struct.std::_Optional_payload.213" = type { %"struct.std::_Optional_payload_base.base.215", [3 x i8] }
%"struct.std::_Optional_payload_base.base.215" = type <{ %"union.std::_Optional_payload_base<llvm::UniqueBBID>::_Storage", i8 }>
%"union.std::_Optional_payload_base<llvm::UniqueBBID>::_Storage" = type { %"struct.llvm::UniqueBBID" }
%"struct.llvm::UniqueBBID" = type { i32, i32 }
%"struct.llvm::MBBSectionID" = type { i32, i32 }

; Function Attrs: mustprogress nounwind uwtable
define linkonce_odr hidden noundef ptr @_ZN4llvm25SmallVectorTemplateCommonINS_19MachineTraceMetrics14FixedBlockInfoEvE5beginEv(ptr noundef nonnull align 8 dereferenceable(16) %0) #0 comdat align 2 {
  %2 = alloca ptr, align 8
  store ptr %0, ptr %2, align 8
  %3 = load ptr, ptr %2, align 8
  %4 = getelementptr inbounds nuw %"class.llvm::SmallVectorBase", ptr %3, i32 0, i32 0
  %5 = load ptr, ptr %4, align 8
  ret ptr %5
}

; Function Attrs: mustprogress nounwind uwtable
define linkonce_odr hidden void @_ZN4llvm19MachineTraceMetrics14FixedBlockInfo10invalidateEv(ptr noundef nonnull align 4 dereferenceable(5) %0) #0 comdat align 2 {
  %2 = alloca ptr, align 8
  store ptr %0, ptr %2, align 8
  %3 = load ptr, ptr %2, align 8
  %4 = getelementptr inbounds nuw %"struct.llvm::MachineTraceMetrics::FixedBlockInfo", ptr %3, i32 0, i32 0
  store i32 -1, ptr %4, align 4
  ret void
}

; Function Attrs: mustprogress nounwind uwtable
define linkonce_odr hidden noundef nonnull align 4 dereferenceable(5) ptr @_ZN4llvm25SmallVectorTemplateCommonINS_19MachineTraceMetrics14FixedBlockInfoEvEixEm(ptr noundef nonnull align 8 dereferenceable(16) %0, i64 noundef %1) #0 comdat align 2 {
  %3 = alloca ptr, align 8
  %4 = alloca i64, align 8
  store ptr %0, ptr %3, align 8
  store i64 %1, ptr %4, align 8
  %5 = load ptr, ptr %3, align 8
  %6 = call noundef ptr @_ZN4llvm25SmallVectorTemplateCommonINS_19MachineTraceMetrics14FixedBlockInfoEvE5beginEv(ptr noundef nonnull align 8 dereferenceable(16) %5)
  %7 = load i64, ptr %4, align 8
  %8 = getelementptr inbounds %"struct.llvm::MachineTraceMetrics::FixedBlockInfo", ptr %6, i64 %7
  ret ptr %8
}

; Function Attrs: mustprogress nounwind uwtable
define linkonce_odr hidden noundef i32 @_ZNK4llvm17MachineBasicBlock9getNumberEv(ptr noundef nonnull align 8 dereferenceable(288) %0) #0 comdat align 2 {
  %2 = alloca ptr, align 8
  store ptr %0, ptr %2, align 8
  %3 = load ptr, ptr %2, align 8
  %4 = getelementptr inbounds nuw %"class.llvm::MachineBasicBlock", ptr %3, i32 0, i32 2
  %5 = load i32, ptr %4, align 8
  ret i32 %5
}

; Function Attrs: mustprogress nounwind uwtable
define dso_local void @_ZN4llvm19MachineTraceMetrics10invalidateEPKNS_17MachineBasicBlockE(ptr noundef nonnull align 8 dereferenceable(456) %0, ptr noundef %1) #0 align 2 {
  %3 = alloca ptr, align 8
  %4 = alloca ptr, align 8
  %5 = alloca ptr, align 8
  %6 = alloca ptr, align 8
  %7 = alloca ptr, align 8
  %8 = alloca ptr, align 8
  store ptr %0, ptr %3, align 8
  store ptr %1, ptr %4, align 8
  %9 = load ptr, ptr %3, align 8
  br label %10

10:                                               ; preds = %2
  br label %11

11:                                               ; preds = %10
  %12 = getelementptr inbounds nuw %"class.llvm::MachineTraceMetrics", ptr %9, i32 0, i32 7
  %13 = load ptr, ptr %4, align 8
  %14 = call noundef i32 @_ZNK4llvm17MachineBasicBlock9getNumberEv(ptr noundef nonnull align 8 dereferenceable(288) %13)
  %15 = sext i32 %14 to i64
  %16 = call noundef nonnull align 4 dereferenceable(5) ptr @_ZN4llvm25SmallVectorTemplateCommonINS_19MachineTraceMetrics14FixedBlockInfoEvEixEm(ptr noundef nonnull align 8 dereferenceable(16) %12, i64 noundef %15)
  call void @_ZN4llvm19MachineTraceMetrics14FixedBlockInfo10invalidateEv(ptr noundef nonnull align 4 dereferenceable(5) %16)
  %17 = getelementptr inbounds nuw %"class.llvm::MachineTraceMetrics", ptr %9, i32 0, i32 9
  store ptr %17, ptr %5, align 8
  %18 = load ptr, ptr %5, align 8
  %19 = getelementptr inbounds [2 x ptr], ptr %18, i64 0, i64 0
  store ptr %19, ptr %6, align 8
  %20 = load ptr, ptr %5, align 8
  %21 = getelementptr inbounds [2 x ptr], ptr %20, i64 0, i64 0
  %22 = getelementptr inbounds ptr, ptr %21, i64 2
  store ptr %22, ptr %7, align 8
  br label %23

23:                                               ; preds = %36, %11
  %24 = load ptr, ptr %6, align 8
  %25 = load ptr, ptr %7, align 8
  %26 = icmp ne ptr %24, %25
  br i1 %26, label %27, label %39

27:                                               ; preds = %23
  %28 = load ptr, ptr %6, align 8
  %29 = load ptr, ptr %28, align 8
  store ptr %29, ptr %8, align 8
  %30 = load ptr, ptr %8, align 8
  %31 = icmp ne ptr %30, null
  br i1 %31, label %32, label %35

32:                                               ; preds = %27
  %33 = load ptr, ptr %8, align 8
  %34 = load ptr, ptr %4, align 8
  call void @_ZN4llvm19MachineTraceMetrics8Ensemble10invalidateEPKNS_17MachineBasicBlockE(ptr noundef nonnull align 8 dereferenceable(440) %33, ptr noundef %34)
  br label %35

35:                                               ; preds = %32, %27
  br label %36

36:                                               ; preds = %35
  %37 = load ptr, ptr %6, align 8
  %38 = getelementptr inbounds ptr, ptr %37, i32 1
  store ptr %38, ptr %6, align 8
  br label %23

39:                                               ; preds = %23
  ret void
}