; Function Attrs: mustprogress nounwind uwtable
define dso_local void @_ZN4llvm19MachineTraceMetrics10invalidateEPKNS_17MachineBasicBlockE(ptr noundef nonnull readonly align 8 captures(none) dereferenceable(456) %0, ptr noundef %1) local_unnamed_addr #0 align 2 {
  %3 = getelementptr inbounds nuw i8, ptr %0, i64 376
  %4 = getelementptr inbounds nuw i8, ptr %1, i64 24
  %5 = load i32, ptr %4, align 8
  %6 = sext i32 %5 to i64
  %7 = load ptr, ptr %3, align 8
  %8 = getelementptr inbounds %"struct.llvm::MachineTraceMetrics::FixedBlockInfo", ptr %7, i64 %6
  store i32 -1, ptr %8, align 4
  br label %9

9:                                                ; preds = %2, %12
  %.0.idx14 = phi i64 [ 440, %2 ], [ %.0.add, %12 ]
  %.0.ptr = getelementptr inbounds nuw i8, ptr %0, i64 %.0.idx14
  %10 = load ptr, ptr %.0.ptr, align 8
  %.not13 = icmp eq ptr %10, null
  br i1 %.not13, label %12, label %11

11:                                               ; preds = %9
  tail call void @_ZN4llvm19MachineTraceMetrics8Ensemble10invalidateEPKNS_17MachineBasicBlockE(ptr noundef nonnull align 8 dereferenceable(440) %10, ptr noundef nonnull %1)
  br label %12

12:                                               ; preds = %9, %11
  %.0.add = add nuw nsw i64 %.0.idx14, 8
  %.not = icmp eq i64 %.0.add, 456
  br i1 %.not, label %13, label %9

13:                                               ; preds = %12
  ret void
}